target datalayout = "e-m:e-p270:32:32-p271:32:32-p272:64:64-i64:64-i128:128-f80:128-n8:16:32:64-S128"
target triple = "x86_64-pc-linux-gnu"

%struct.ssl_st = type { i32, i16, i16, ptr, ptr, ptr, ptr, ptr, i32, i32, ptr, ptr, i32, i32, ptr, ptr, ptr, ptr, ptr, ptr, ptr, ptr, i32, i32, [32 x i8], ptr, ptr, ptr, ptr, ptr, ptr, ptr, i64, %struct.crypto_ex_data_st, ptr, i32, i32, i32, i32, i16, ptr, i32, i64, ptr, ptr, ptr, ptr, ptr, ptr, i32, i32, ptr, ptr, i8, i8, i32 }
%struct.crypto_ex_data_st = type { ptr }
%struct.ssl3_state_st = type { [8 x i8], [8 x i8], [32 x i8], [32 x i8], i8, i8, %struct.ssl3_buffer_st, %struct.ssl3_buffer_st, %struct.ssl3_record_st, i8, i32, i32, i32, i32, ptr, ptr, %struct.env_md_ctx_st, %struct.env_md_ctx_st, i8, i32, [2 x i8], i32, i8, i8, ptr, ptr, ptr, %struct.anon, [64 x i8], i8, [64 x i8], i8, i32, i32, ptr, i64, ptr, i64, i8, [64 x i8] }
%struct.ssl3_buffer_st = type { ptr, i16, i16, i16 }
%struct.ssl3_record_st = type { i8, i16, ptr }
%struct.env_md_ctx_st = type { ptr, ptr, ptr, ptr }
%struct.anon = type { [64 x i8], i32, [64 x i8], i32, i64, i32, ptr, i32, i32, %union.anon, %union.anon.0, i8, i32, ptr, ptr, i64, ptr, i8, i8, i8, i8, i32, i8, ptr, i64, i8, ptr, i8, i8, i8, %struct.ssl_ecdh_ctx_st, ptr, i16 }
%union.anon = type { i32 }
%union.anon.0 = type { i16 }
%struct.ssl_ecdh_ctx_st = type { ptr, ptr }
%struct.ssl_protocol_method_st = type { i8, ptr, ptr, ptr, ptr, ptr, ptr, ptr, ptr, ptr, ptr, ptr, i32, ptr, ptr }

@.str = private unnamed_addr constant [116 x i8] c"generated/home/dtcxzyw/WorkSpace/Projects/compilers/llvm-opt-benchmark/bench/libquic/libquic/boringssl/ssl/d1_pkt.c\00", align 1

; Function Attrs: nounwind uwtable
define internal i32 @do_dtls1_write(ptr noundef %0, i32 noundef %1, ptr noundef %2, i32 noundef %3, i32 noundef %4) #0 {
  %6 = alloca i32, align 4
  %7 = alloca ptr, align 8
  %8 = alloca i32, align 4
  %9 = alloca ptr, align 8
  %10 = alloca i32, align 4
  %11 = alloca i32, align 4
  %12 = alloca i32, align 4
  %13 = alloca i32, align 4
  %14 = alloca i64, align 8
  %15 = alloca ptr, align 8
  %16 = alloca i64, align 8
  %17 = alloca i32, align 4
  store ptr %0, ptr %7, align 8, !tbaa !6
  store i32 %1, ptr %8, align 4, !tbaa !13
  store ptr %2, ptr %9, align 8, !tbaa !11
  store i32 %3, ptr %10, align 4, !tbaa !13
  store i32 %4, ptr %11, align 4, !tbaa !13
  %18 = load ptr, ptr %7, align 8, !tbaa !6
  %19 = getelementptr inbounds nuw %struct.ssl_st, ptr %18, i32 0, i32 14
  %20 = load ptr, ptr %19, align 8, !tbaa !16
  %21 = getelementptr inbounds nuw %struct.ssl3_state_st, ptr %20, i32 0, i32 19
  %22 = load i32, ptr %21, align 4, !tbaa !80
  %23 = icmp ne i32 %22, 0
  br i1 %23, label %24, label %40

24:                                               ; preds = %5
  call void @llvm.lifetime.start.p0(i64 4, ptr %12) #4
  %25 = load ptr, ptr %7, align 8, !tbaa !6
  %26 = getelementptr inbounds nuw %struct.ssl_st, ptr %25, i32 0, i32 3
  %27 = load ptr, ptr %26, align 8, !tbaa !81
  %28 = getelementptr inbounds nuw %struct.ssl_protocol_method_st, ptr %27, i32 0, i32 10
  %29 = load ptr, ptr %28, align 8, !tbaa !82
  %30 = load ptr, ptr %7, align 8, !tbaa !6
  %31 = call i32 %29(ptr noundef %30)
  store i32 %31, ptr %12, align 4, !tbaa !13
  %32 = load i32, ptr %12, align 4, !tbaa !13
  %33 = icmp sle i32 %32, 0
  br i1 %33, label %34, label %36

34:                                               ; preds = %24
  %35 = load i32, ptr %12, align 4, !tbaa !13
  store i32 %35, ptr %6, align 4
  store i32 1, ptr %13, align 4
  br label %37

36:                                               ; preds = %24
  store i32 0, ptr %13, align 4
  br label %37

37:                                               ; preds = %36, %34
  call void @llvm.lifetime.end.p0(i64 4, ptr %12) #4
  %38 = load i32, ptr %13, align 4
  switch i32 %38, label %87 [
    i32 0, label %39
    i32 1, label %85
  ]

39:                                               ; preds = %37
  br label %40

40:                                               ; preds = %39, %5
  %41 = load i32, ptr %10, align 4, !tbaa !13
  %42 = icmp ugt i32 %41, 16384
  br i1 %42, label %43, label %44

43:                                               ; preds = %40
  call void @ERR_put_error(i32 noundef 16, i32 noundef 0, i32 noundef 68, ptr noundef @.str, i32 noundef 481)
  store i32 -1, ptr %6, align 4
  br label %85

44:                                               ; preds = %40
  %45 = load i32, ptr %10, align 4, !tbaa !13
  %46 = icmp eq i32 %45, 0
  br i1 %46, label %47, label %48

47:                                               ; preds = %44
  store i32 0, ptr %6, align 4
  br label %85

48:                                               ; preds = %44
  call void @llvm.lifetime.start.p0(i64 8, ptr %14) #4
  %49 = load i32, ptr %10, align 4, !tbaa !13
  %50 = zext i32 %49 to i64
  %51 = load ptr, ptr %7, align 8, !tbaa !6
  %52 = call i64 @ssl_max_seal_overhead(ptr noundef %51)
  %53 = add i64 %50, %52
  store i64 %53, ptr %14, align 8, !tbaa !79
  call void @llvm.lifetime.start.p0(i64 8, ptr %15) #4
  call void @llvm.lifetime.start.p0(i64 8, ptr %16) #4
  %54 = load ptr, ptr %7, align 8, !tbaa !6
  %55 = load i64, ptr %14, align 8, !tbaa !79
  %56 = call i32 @ssl_write_buffer_init(ptr noundef %54, ptr noundef %15, i64 noundef %55)
  %57 = icmp ne i32 %56, 0
  br i1 %57, label %58, label %70

58:                                               ; preds = %48
  %59 = load ptr, ptr %7, align 8, !tbaa !6
  %60 = load ptr, ptr %15, align 8, !tbaa !11
  %61 = load i64, ptr %14, align 8, !tbaa !79
  %62 = load i32, ptr %8, align 4, !tbaa !13
  %63 = trunc i32 %62 to i8
  %64 = load ptr, ptr %9, align 8, !tbaa !11
  %65 = load i32, ptr %10, align 4, !tbaa !13
  %66 = zext i32 %65 to i64
  %67 = load i32, ptr %11, align 4, !tbaa !13
  %68 = call i32 @dtls_seal_record(ptr noundef %59, ptr noundef %60, ptr noundef %16, i64 noundef %61, i8 noundef zeroext %63, ptr noundef %64, i64 noundef %66, i32 noundef %67)
  %69 = icmp ne i32 %68, 0
  br i1 %69, label %72, label %70

70:                                               ; preds = %58, %48
  %71 = load ptr, ptr %7, align 8, !tbaa !6
  call void @ssl_write_buffer_clear(ptr noundef %71)
  store i32 -1, ptr %6, align 4
  store i32 1, ptr %13, align 4
  br label %84

72:                                               ; preds = %58
  %73 = load ptr, ptr %7, align 8, !tbaa !6
  %74 = load i64, ptr %16, align 8, !tbaa !79
  call void @ssl_write_buffer_set_len(ptr noundef %73, i64 noundef %74)
  call void @llvm.lifetime.start.p0(i64 4, ptr %17) #4
  %75 = load ptr, ptr %7, align 8, !tbaa !6
  %76 = call i32 @ssl_write_buffer_flush(ptr noundef %75)
  store i32 %76, ptr %17, align 4, !tbaa !13
  %77 = load i32, ptr %17, align 4, !tbaa !13
  %78 = icmp sle i32 %77, 0
  br i1 %78, label %79, label %81

79:                                               ; preds = %72
  %80 = load i32, ptr %17, align 4, !tbaa !13
  store i32 %80, ptr %6, align 4
  store i32 1, ptr %13, align 4
  br label %83

81:                                               ; preds = %72
  %82 = load i32, ptr %10, align 4, !tbaa !13
  store i32 %82, ptr %6, align 4
  store i32 1, ptr %13, align 4
  br label %83

83:                                               ; preds = %81, %79
  call void @llvm.lifetime.end.p0(i64 4, ptr %17) #4
  br label %84

84:                                               ; preds = %83, %70
  call void @llvm.lifetime.end.p0(i64 8, ptr %16) #4
  call void @llvm.lifetime.end.p0(i64 8, ptr %15) #4
  call void @llvm.lifetime.end.p0(i64 8, ptr %14) #4
  br label %85

85:                                               ; preds = %84, %47, %43, %37
  %86 = load i32, ptr %6, align 4
  ret i32 %86

87:                                               ; preds = %37
  unreachable
}