; Function Attrs: nounwind uwtable
define internal fastcc i32 @do_dtls1_write(ptr noundef %0, i32 noundef %1, ptr noundef %2, i32 noundef %3, i32 noundef %4) unnamed_addr #0 {
  %6 = alloca ptr, align 8
  %7 = alloca i64, align 8
  %8 = getelementptr inbounds nuw i8, ptr %0, i64 80
  %9 = load ptr, ptr %8, align 8, !tbaa !6
  %10 = getelementptr inbounds nuw i8, ptr %9, i64 244
  %11 = load i32, ptr %10, align 4, !tbaa !72
  %.not = icmp eq i32 %11, 0
  br i1 %.not, label %19, label %12

12:                                               ; preds = %5
  %13 = getelementptr inbounds nuw i8, ptr %0, i64 8
  %14 = load ptr, ptr %13, align 8, !tbaa !73
  %15 = getelementptr inbounds nuw i8, ptr %14, i64 80
  %16 = load ptr, ptr %15, align 8, !tbaa !74
  %17 = tail call i32 %16(ptr noundef nonnull %0) #6
  %18 = icmp sgt i32 %17, 0
  br i1 %18, label %19, label %39

19:                                               ; preds = %12, %5
  %20 = icmp ugt i32 %3, 16384
  br i1 %20, label %21, label %22

21:                                               ; preds = %19
  tail call void @ERR_put_error(i32 noundef 16, i32 noundef 0, i32 noundef 68, ptr noundef nonnull @.str, i32 noundef 481) #6
  br label %39

22:                                               ; preds = %19
  %23 = icmp eq i32 %3, 0
  br i1 %23, label %39, label %24

24:                                               ; preds = %22
  %25 = zext nneg i32 %3 to i64
  %26 = tail call i64 @ssl_max_seal_overhead(ptr noundef nonnull %0) #6
  %27 = add i64 %26, %25
  call void @llvm.lifetime.start.p0(i64 8, ptr nonnull %6) #6
  call void @llvm.lifetime.start.p0(i64 8, ptr nonnull %7) #6
  %28 = call i32 @ssl_write_buffer_init(ptr noundef nonnull %0, ptr noundef nonnull %6, i64 noundef %27) #6
  %.not26 = icmp eq i32 %28, 0
  br i1 %.not26, label %33, label %29

29:                                               ; preds = %24
  %30 = load ptr, ptr %6, align 8, !tbaa !76
  %31 = trunc i32 %1 to i8
  %32 = call i32 @dtls_seal_record(ptr noundef nonnull %0, ptr noundef %30, ptr noundef nonnull %7, i64 noundef %27, i8 noundef zeroext %31, ptr noundef %2, i64 noundef %25, i32 noundef %4) #6
  %.not27 = icmp eq i32 %32, 0
  br i1 %.not27, label %33, label %34

33:                                               ; preds = %29, %24
  call void @ssl_write_buffer_clear(ptr noundef nonnull %0) #6
  br label %38

34:                                               ; preds = %29
  %35 = load i64, ptr %7, align 8, !tbaa !37
  call void @ssl_write_buffer_set_len(ptr noundef nonnull %0, i64 noundef %35) #6
  %36 = call i32 @ssl_write_buffer_flush(ptr noundef nonnull %0) #6
  %37 = icmp slt i32 %36, 1
  %. = select i1 %37, i32 %36, i32 %3
  br label %38

38:                                               ; preds = %34, %33
  %.2 = phi i32 [ %., %34 ], [ -1, %33 ]
  call void @llvm.lifetime.end.p0(i64 8, ptr nonnull %7) #6
  call void @llvm.lifetime.end.p0(i64 8, ptr nonnull %6) #6
  br label %39

39:                                               ; preds = %12, %22, %38, %21
  %.1 = phi i32 [ %17, %12 ], [ -1, %21 ], [ %.2, %38 ], [ 0, %22 ]
  ret i32 %.1
}